#include <math.h>
#include <stdio.h>
#include <stdlib.h>
#include <string.h>

int main()
{
    int n,i,j,k,y;
    y=0;
    scanf("%d",&n);
    for(i=2;i<=n-2;i++)
    {
        for (j=2;j<i;j++)
        {
            if (i%j==0)
            break;
            }
        if(j==i)
        {
            for (k=2;k<i+2;k++)
            {
                if((i+2)%k==0)
                     break;
                }
            if (k==i+2)
            {
               y=1;
               printf("%d %d\n",i,i+2);
               }
            }
        else
        continue;
        }
     if (y==0) printf("empty\n");
     return(0);
}